; Function Attrs: mustprogress nofree norecurse nosync nounwind willreturn memory(write, argmem: readwrite, inaccessiblemem: none) uwtable
define hidden void @_ZN11hb_buffer_t15clear_positionsEv(ptr nocapture noundef nonnull align 8 dereferenceable(220) %0) local_unnamed_addr #9 align 2 {
  %2 = getelementptr inbounds i8, ptr %0, i64 82
  store i8 0, ptr %2, align 2
  %3 = getelementptr inbounds i8, ptr %0, i64 83
  store i8 1, ptr %3, align 1
  %4 = getelementptr inbounds i8, ptr %0, i64 92
  store i32 0, ptr %4, align 4
  %5 = getelementptr inbounds i8, ptr %0, i64 104
  %6 = load ptr, ptr %5, align 8
  %7 = getelementptr inbounds i8, ptr %0, i64 112
  store ptr %6, ptr %7, align 8
  %8 = getelementptr inbounds i8, ptr %0, i64 88
  %9 = load i32, ptr %8, align 8
  %10 = mul i32 %9, 20
  %.not.i = icmp eq i32 %10, 0
  br i1 %.not.i, label %_ZL9hb_memsetPvij.exit, label %11

11:                                               ; preds = %1
  %12 = getelementptr inbounds i8, ptr %0, i64 120
  %13 = load ptr, ptr %12, align 8
  %14 = zext i32 %10 to i64
  tail call void @llvm.memset.p0.i64(ptr align 1 %13, i8 0, i64 %14, i1 false)
  br label %_ZL9hb_memsetPvij.exit

_ZL9hb_memsetPvij.exit:                           ; preds = %1, %11
  ret void
}